; Function Attrs: mustprogress uwtable
define void @_ZN6casadi10Integrator15get_sparsity_inEx(ptr dead_on_unwind noalias writable sret(%"class.casadi::Sparsity") align 8 %0, ptr nocapture noundef nonnull readonly align 8 dereferenceable(1905) %1, i64 noundef %2) unnamed_addr #3 align 2 {
  %4 = trunc i64 %2 to i32
  switch i32 %4, label %92 [
    i32 0, label %5
    i32 1, label %11
    i32 2, label %17
    i32 3, label %23
    i32 4, label %38
    i32 5, label %56
    i32 6, label %74
  ]

5:                                                ; preds = %3
  %6 = getelementptr inbounds i8, ptr %1, i64 1624
  %7 = load i64, ptr %6, align 8
  %8 = getelementptr inbounds i8, ptr %1, i64 1576
  %9 = load i64, ptr %8, align 8
  %10 = add nsw i64 %9, 1
  tail call void @_ZN6casadi8Sparsity5denseExx(ptr dead_on_unwind writable sret(%"class.casadi::Sparsity") align 8 %0, i64 noundef %7, i64 noundef %10)
  br label %93

11:                                               ; preds = %3
  %12 = getelementptr inbounds i8, ptr %1, i64 1632
  %13 = load i64, ptr %12, align 8
  %14 = getelementptr inbounds i8, ptr %1, i64 1576
  %15 = load i64, ptr %14, align 8
  %16 = add nsw i64 %15, 1
  tail call void @_ZN6casadi8Sparsity5denseExx(ptr dead_on_unwind writable sret(%"class.casadi::Sparsity") align 8 %0, i64 noundef %13, i64 noundef %16)
  br label %93

17:                                               ; preds = %3
  %18 = getelementptr inbounds i8, ptr %1, i64 1728
  %19 = load i64, ptr %18, align 8
  %20 = getelementptr inbounds i8, ptr %1, i64 1576
  %21 = load i64, ptr %20, align 8
  %22 = add nsw i64 %21, 1
  tail call void @_ZN6casadi8Sparsity5denseExx(ptr dead_on_unwind writable sret(%"class.casadi::Sparsity") align 8 %0, i64 noundef %19, i64 noundef %22)
  br label %93

23:                                               ; preds = %3
  %24 = getelementptr inbounds i8, ptr %1, i64 1752
  %25 = load i64, ptr %24, align 8
  %26 = getelementptr inbounds i8, ptr %1, i64 1552
  %27 = getelementptr inbounds i8, ptr %1, i64 1560
  %28 = load ptr, ptr %27, align 8
  %29 = load ptr, ptr %26, align 8
  %30 = ptrtoint ptr %28 to i64
  %31 = ptrtoint ptr %29 to i64
  %32 = sub i64 %30, %31
  %33 = ashr exact i64 %32, 3
  %34 = getelementptr inbounds i8, ptr %1, i64 1576
  %35 = load i64, ptr %34, align 8
  %36 = add nsw i64 %35, 1
  %37 = mul nsw i64 %33, %36
  tail call void @_ZN6casadi8Sparsity5denseExx(ptr dead_on_unwind writable sret(%"class.casadi::Sparsity") align 8 %0, i64 noundef %25, i64 noundef %37)
  br label %93

38:                                               ; preds = %3
  %39 = getelementptr inbounds i8, ptr %1, i64 1680
  %40 = load i64, ptr %39, align 8
  %41 = getelementptr inbounds i8, ptr %1, i64 1584
  %42 = load i64, ptr %41, align 8
  %43 = getelementptr inbounds i8, ptr %1, i64 1576
  %44 = load i64, ptr %43, align 8
  %45 = add nsw i64 %44, 1
  %46 = mul nsw i64 %45, %42
  %47 = getelementptr inbounds i8, ptr %1, i64 1552
  %48 = getelementptr inbounds i8, ptr %1, i64 1560
  %49 = load ptr, ptr %48, align 8
  %50 = load ptr, ptr %47, align 8
  %51 = ptrtoint ptr %49 to i64
  %52 = ptrtoint ptr %50 to i64
  %53 = sub i64 %51, %52
  %54 = ashr exact i64 %53, 3
  %55 = mul nsw i64 %46, %54
  tail call void @_ZN6casadi8Sparsity5denseExx(ptr dead_on_unwind writable sret(%"class.casadi::Sparsity") align 8 %0, i64 noundef %40, i64 noundef %55)
  br label %93

56:                                               ; preds = %3
  %57 = getelementptr inbounds i8, ptr %1, i64 1688
  %58 = load i64, ptr %57, align 8
  %59 = getelementptr inbounds i8, ptr %1, i64 1584
  %60 = load i64, ptr %59, align 8
  %61 = getelementptr inbounds i8, ptr %1, i64 1576
  %62 = load i64, ptr %61, align 8
  %63 = add nsw i64 %62, 1
  %64 = mul nsw i64 %63, %60
  %65 = getelementptr inbounds i8, ptr %1, i64 1552
  %66 = getelementptr inbounds i8, ptr %1, i64 1560
  %67 = load ptr, ptr %66, align 8
  %68 = load ptr, ptr %65, align 8
  %69 = ptrtoint ptr %67 to i64
  %70 = ptrtoint ptr %68 to i64
  %71 = sub i64 %69, %70
  %72 = ashr exact i64 %71, 3
  %73 = mul nsw i64 %64, %72
  tail call void @_ZN6casadi8Sparsity5denseExx(ptr dead_on_unwind writable sret(%"class.casadi::Sparsity") align 8 %0, i64 noundef %58, i64 noundef %73)
  br label %93

74:                                               ; preds = %3
  %75 = getelementptr inbounds i8, ptr %1, i64 1736
  %76 = load i64, ptr %75, align 8
  %77 = getelementptr inbounds i8, ptr %1, i64 1584
  %78 = load i64, ptr %77, align 8
  %79 = getelementptr inbounds i8, ptr %1, i64 1576
  %80 = load i64, ptr %79, align 8
  %81 = add nsw i64 %80, 1
  %82 = mul nsw i64 %81, %78
  %83 = getelementptr inbounds i8, ptr %1, i64 1552
  %84 = getelementptr inbounds i8, ptr %1, i64 1560
  %85 = load ptr, ptr %84, align 8
  %86 = load ptr, ptr %83, align 8
  %87 = ptrtoint ptr %85 to i64
  %88 = ptrtoint ptr %86 to i64
  %89 = sub i64 %87, %88
  %90 = ashr exact i64 %89, 3
  %91 = mul nsw i64 %82, %90
  tail call void @_ZN6casadi8Sparsity5denseExx(ptr dead_on_unwind writable sret(%"class.casadi::Sparsity") align 8 %0, i64 noundef %76, i64 noundef %91)
  br label %93

92:                                               ; preds = %3
  tail call void @_ZN6casadi8SparsityC1Ex(ptr noundef nonnull align 8 dereferenceable(8) %0, i64 noundef 0)
  br label %93

93:                                               ; preds = %92, %74, %56, %38, %23, %17, %11, %5
  ret void
}